; Function Attrs: mustprogress nounwind uwtable
define internal void @_ZN4absl18container_internal12_GLOBAL__N_115Test_apply_TestD0Ev(ptr noundef nonnull align 8 dereferenceable(168) initializes((0, 8)) %0) unnamed_addr #3 align 2 {
  store ptr getelementptr inbounds nuw inrange(-16, 48) (i8, ptr @_ZTVN4absl18container_internal12_GLOBAL__N_14TestE, i64 16), ptr %0, align 8, !tbaa !9
  %2 = getelementptr inbounds nuw i8, ptr %0, i64 96
  tail call void @_ZN7testing8internal14FunctionMockerIFRiPiEED2Ev(ptr noundef nonnull align 8 dereferenceable(72) %2) #28
  %3 = getelementptr inbounds nuw i8, ptr %0, i64 24
  tail call void @_ZN7testing8internal14FunctionMockerIFiiEED2Ev(ptr noundef nonnull align 8 dereferenceable(72) %3) #28
  tail call void @_ZN7testing4TestD2Ev(ptr noundef nonnull align 8 dereferenceable(168) %0) #28
  tail call void @_ZdlPvm(ptr noundef nonnull %0, i64 noundef 168) #29
  ret void
}